target datalayout = "e-m:e-p270:32:32-p271:32:32-p272:64:64-i64:64-i128:128-f80:128-n8:16:32:64-S128"
target triple = "x86_64-pc-linux-gnu"

%"struct.Luau::NotNull" = type { ptr }
%"struct.Luau::Location" = type { %"struct.Luau::Position", %"struct.Luau::Position" }
%"struct.Luau::Position" = type { i32, i32 }
%"class.Luau::AstNode" = type <{ ptr, i32, %"struct.Luau::Location", [4 x i8] }>
%"class.Luau::AstNode.base" = type <{ ptr, i32, %"struct.Luau::Location" }>
%"class.Luau::AstExprTypeAssertion" = type { %"class.Luau::AstExpr.base", ptr, ptr }
%"class.Luau::AstExpr.base" = type { %"class.Luau::AstNode.base" }

@_ZN4Luau7AstRttiINS_20AstExprTypeAssertionEE5valueE = linkonce_odr dso_local global i32 0, comdat, align 4

; Function Attrs: mustprogress nounwind uwtable
define linkonce_odr dso_local noundef i32 @_ZN4Luau20AstExprTypeAssertion10ClassIndexEv() #2 comdat align 2 {
  %1 = load i32, ptr @_ZN4Luau7AstRttiINS_20AstExprTypeAssertionEE5valueE, align 4, !tbaa !4
  ret i32 %1
}

; Function Attrs: mustprogress uwtable
define linkonce_odr dso_local noundef ptr @_ZN4Luau7AstNode2asINS_20AstExprTypeAssertionEEEPT_v(ptr noundef nonnull align 8 dereferenceable(28) %0) #8 comdat align 2 {
  %2 = alloca ptr, align 8
  store ptr %0, ptr %2, align 8, !tbaa !99
  %3 = load ptr, ptr %2, align 8
  %4 = getelementptr inbounds nuw %"class.Luau::AstNode", ptr %3, i32 0, i32 1
  %5 = load i32, ptr %4, align 8, !tbaa !101
  %6 = call noundef i32 @_ZN4Luau20AstExprTypeAssertion10ClassIndexEv()
  %7 = icmp eq i32 %5, %6
  br i1 %7, label %8, label %9

8:                                                ; preds = %1
  br label %10

9:                                                ; preds = %1
  br label %10

10:                                               ; preds = %9, %8
  %11 = phi ptr [ %3, %8 ], [ null, %9 ]
  ret ptr %11
}

; Function Attrs: mustprogress uwtable
define dso_local noundef zeroext i1 @_ZN4Luau14AnyTypeSummary9isAnyCastEPKNS_5ScopeEPNS_7AstExprEPKNS_6ModuleENS_7NotNullINS_12BuiltinTypesEEE(ptr noundef nonnull align 8 dereferenceable(288) %0, ptr noundef %1, ptr noundef %2, ptr noundef %3, ptr %4) #8 align 2 {
  %6 = alloca i1, align 1
  %7 = alloca %"struct.Luau::NotNull", align 8
  %8 = alloca ptr, align 8
  %9 = alloca ptr, align 8
  %10 = alloca ptr, align 8
  %11 = alloca ptr, align 8
  %12 = alloca ptr, align 8
  %13 = alloca ptr, align 8
  %14 = alloca %"struct.Luau::NotNull", align 8
  %15 = alloca i32, align 4
  %16 = getelementptr inbounds nuw %"struct.Luau::NotNull", ptr %7, i32 0, i32 0
  store ptr %4, ptr %16, align 8
  store ptr %0, ptr %8, align 8, !tbaa !42
  store ptr %1, ptr %9, align 8, !tbaa !52
  store ptr %2, ptr %10, align 8, !tbaa !160
  store ptr %3, ptr %11, align 8, !tbaa !44
  %17 = load ptr, ptr %8, align 8
  call void @llvm.lifetime.start.p0(i64 8, ptr %12) #4
  %18 = load ptr, ptr %10, align 8, !tbaa !160
  %19 = call noundef ptr @_ZN4Luau7AstNode2asINS_20AstExprTypeAssertionEEEPT_v(ptr noundef nonnull align 8 dereferenceable(28) %18)
  store ptr %19, ptr %12, align 8, !tbaa !161
  %20 = load ptr, ptr %12, align 8, !tbaa !161
  %21 = icmp ne ptr %20, null
  br i1 %21, label %22, label %37

22:                                               ; preds = %5
  call void @llvm.lifetime.start.p0(i64 8, ptr %13) #4
  %23 = load ptr, ptr %12, align 8, !tbaa !161
  %24 = getelementptr inbounds nuw %"class.Luau::AstExprTypeAssertion", ptr %23, i32 0, i32 2
  %25 = load ptr, ptr %24, align 8, !tbaa !163
  %26 = load ptr, ptr %11, align 8, !tbaa !44
  call void @llvm.memcpy.p0.p0.i64(ptr align 8 %14, ptr align 8 %7, i64 8, i1 false), !tbaa.struct !49
  %27 = getelementptr inbounds nuw %"struct.Luau::NotNull", ptr %14, i32 0, i32 0
  %28 = load ptr, ptr %27, align 8
  %29 = call noundef ptr @_ZN4Luau14AnyTypeSummary16lookupAnnotationEPNS_7AstTypeEPKNS_6ModuleENS_7NotNullINS_12BuiltinTypesEEE(ptr noundef nonnull align 8 dereferenceable(288) %17, ptr noundef %25, ptr noundef %26, ptr %28)
  store ptr %29, ptr %13, align 8, !tbaa !246
  %30 = load ptr, ptr %13, align 8, !tbaa !246
  %31 = call noundef zeroext i1 @_ZN4Luau14AnyTypeSummary11containsAnyEPKNS_4TypeE(ptr noundef nonnull align 8 dereferenceable(288) %17, ptr noundef %30)
  br i1 %31, label %32, label %33

32:                                               ; preds = %22
  store i1 true, ptr %6, align 1
  store i32 1, ptr %15, align 4
  br label %34

33:                                               ; preds = %22
  store i32 0, ptr %15, align 4
  br label %34

34:                                               ; preds = %33, %32
  call void @llvm.lifetime.end.p0(i64 8, ptr %13) #4
  %35 = load i32, ptr %15, align 4
  switch i32 %35, label %38 [
    i32 0, label %36
  ]

36:                                               ; preds = %34
  br label %37

37:                                               ; preds = %36, %5
  store i32 0, ptr %15, align 4
  br label %38

38:                                               ; preds = %37, %34
  call void @llvm.lifetime.end.p0(i64 8, ptr %12) #4
  %39 = load i32, ptr %15, align 4
  switch i32 %39, label %43 [
    i32 0, label %40
    i32 1, label %41
  ]

40:                                               ; preds = %38
  store i1 false, ptr %6, align 1
  br label %41

41:                                               ; preds = %40, %38
  %42 = load i1, ptr %6, align 1
  ret i1 %42

43:                                               ; preds = %38
  unreachable
}