; Function Attrs: mustprogress uwtable
define dso_local noundef zeroext i1 @_ZN4Luau14AnyTypeSummary9isAnyCastEPKNS_5ScopeEPNS_7AstExprEPKNS_6ModuleENS_7NotNullINS_12BuiltinTypesEEE(ptr noundef nonnull align 8 dereferenceable(288) %0, ptr noundef readnone captures(none) %1, ptr noundef readonly %2, ptr noundef readonly captures(none) %3, ptr %4) local_unnamed_addr #6 align 2 {
  %6 = getelementptr inbounds nuw i8, ptr %2, i64 8
  %7 = load i32, ptr %6, align 8, !tbaa !24
  %8 = load i32, ptr @_ZN4Luau7AstRttiINS_20AstExprTypeAssertionEE5valueE, align 4, !tbaa !4
  %9 = icmp ne i32 %7, %8
  %.not12 = icmp eq ptr %2, null
  %.not = or i1 %.not12, %9
  br i1 %.not, label %15, label %10

10:                                               ; preds = %5
  %11 = getelementptr inbounds nuw i8, ptr %2, i64 40
  %12 = load ptr, ptr %11, align 8, !tbaa !125
  %13 = tail call noundef ptr @_ZN4Luau14AnyTypeSummary16lookupAnnotationEPNS_7AstTypeEPKNS_6ModuleENS_7NotNullINS_12BuiltinTypesEEE(ptr noundef nonnull align 8 dereferenceable(288) %0, ptr noundef %12, ptr noundef %3, ptr %4)
  %14 = tail call noundef zeroext i1 @_ZN4Luau14AnyTypeSummary11containsAnyEPKNS_4TypeE(ptr noundef nonnull align 8 dereferenceable(288) %0, ptr noundef %13)
  br i1 %14, label %16, label %15

15:                                               ; preds = %10, %5
  br label %16

16:                                               ; preds = %10, %15
  %.1 = phi i1 [ false, %15 ], [ true, %10 ]
  ret i1 %.1
}